; Function Attrs: nounwind uwtable
define nonnull ptr @l_Lean_Omega_Constraint_isExact___boxed(ptr noundef %0) local_unnamed_addr #1 {
  %2 = getelementptr inbounds nuw i8, ptr %0, i64 8
  %3 = load ptr, ptr %2, align 8, !tbaa !11
  %4 = ptrtoint ptr %3 to i64
  %5 = and i64 %4, 1
  %.not.i.i = icmp eq i64 %5, 0
  br i1 %.not.i.i, label %9, label %6

6:                                                ; preds = %1
  %7 = lshr i64 %4, 1
  %8 = trunc i64 %7 to i32
  br label %lean_obj_tag.exit.i

9:                                                ; preds = %1
  %10 = getelementptr i8, ptr %3, i64 4
  %.val.i.i = load i32, ptr %10, align 4
  %11 = lshr i32 %.val.i.i, 24
  br label %lean_obj_tag.exit.i

lean_obj_tag.exit.i:                              ; preds = %9, %6
  %.0.i.i = phi i32 [ %8, %6 ], [ %11, %9 ]
  %12 = icmp eq i32 %.0.i.i, 0
  br i1 %12, label %l_Lean_Omega_Constraint_isExact.exit, label %13

13:                                               ; preds = %lean_obj_tag.exit.i
  %14 = getelementptr inbounds nuw i8, ptr %0, i64 16
  %15 = load ptr, ptr %14, align 8, !tbaa !11
  %16 = ptrtoint ptr %15 to i64
  %17 = and i64 %16, 1
  %.not.i11.i = icmp eq i64 %17, 0
  br i1 %.not.i11.i, label %21, label %18

18:                                               ; preds = %13
  %19 = lshr i64 %16, 1
  %20 = trunc i64 %19 to i32
  br label %lean_obj_tag.exit14.i

21:                                               ; preds = %13
  %22 = getelementptr i8, ptr %15, i64 4
  %.val.i13.i = load i32, ptr %22, align 4
  %23 = lshr i32 %.val.i13.i, 24
  br label %lean_obj_tag.exit14.i

lean_obj_tag.exit14.i:                            ; preds = %21, %18
  %.0.i12.i = phi i32 [ %20, %18 ], [ %23, %21 ]
  %24 = icmp eq i32 %.0.i12.i, 0
  br i1 %24, label %l_Lean_Omega_Constraint_isExact.exit, label %25

25:                                               ; preds = %lean_obj_tag.exit14.i
  %26 = getelementptr inbounds nuw i8, ptr %3, i64 8
  %27 = load ptr, ptr %26, align 8, !tbaa !11
  %28 = getelementptr inbounds nuw i8, ptr %15, i64 8
  %29 = load ptr, ptr %28, align 8, !tbaa !11
  %30 = ptrtoint ptr %27 to i64
  %31 = ptrtoint ptr %29 to i64
  %32 = and i64 %30, 1
  %33 = and i64 %32, %31
  %or.cond.not.i.i.i = icmp eq i64 %33, 0
  br i1 %or.cond.not.i.i.i, label %.critedge.i.i.i, label %34, !prof !13

34:                                               ; preds = %25
  %35 = icmp eq ptr %27, %29
  br label %lean_int_dec_eq.exit.i

.critedge.i.i.i:                                  ; preds = %25
  %36 = tail call zeroext i1 @lean_int_big_eq(ptr noundef %27, ptr noundef %29) #4
  br label %lean_int_dec_eq.exit.i

lean_int_dec_eq.exit.i:                           ; preds = %.critedge.i.i.i, %34
  %.0.i.i.i = phi i1 [ %35, %34 ], [ %36, %.critedge.i.i.i ]
  %37 = select i1 %.0.i.i.i, i64 3, i64 1
  br label %l_Lean_Omega_Constraint_isExact.exit

l_Lean_Omega_Constraint_isExact.exit:             ; preds = %lean_obj_tag.exit.i, %lean_obj_tag.exit14.i, %lean_int_dec_eq.exit.i
  %.0.i = phi i64 [ 1, %lean_obj_tag.exit.i ], [ %37, %lean_int_dec_eq.exit.i ], [ 1, %lean_obj_tag.exit14.i ]
  %38 = ptrtoint ptr %0 to i64
  %39 = and i64 %38, 1
  %.not = icmp eq i64 %39, 0
  br i1 %.not, label %40, label %lean_dec.exit

40:                                               ; preds = %l_Lean_Omega_Constraint_isExact.exit
  %41 = load i32, ptr %0, align 4, !tbaa !6
  %42 = icmp sgt i32 %41, 1
  br i1 %42, label %43, label %45, !prof !5

43:                                               ; preds = %40
  %44 = add nsw i32 %41, -1
  store i32 %44, ptr %0, align 4, !tbaa !6
  br label %lean_dec.exit

45:                                               ; preds = %40
  %.not.i = icmp eq i32 %41, 0
  br i1 %.not.i, label %lean_dec.exit, label %46

46:                                               ; preds = %45
  tail call void @lean_dec_ref_cold(ptr noundef nonnull %0) #4
  br label %lean_dec.exit

lean_dec.exit:                                    ; preds = %46, %45, %43, %l_Lean_Omega_Constraint_isExact.exit
  %47 = inttoptr i64 %.0.i to ptr
  ret ptr %47
}